target datalayout = "e-m:e-p270:32:32-p271:32:32-p272:64:64-i64:64-i128:128-f80:128-n8:16:32:64-S128"
target triple = "x86_64-pc-linux-gnu"

%struct._object = type { %union.anon.41, ptr }
%union.anon.41 = type { i64 }
%struct.PyVarObject = type { %struct._object, i64 }
%struct.PyTupleObject = type { %struct.PyVarObject, [1 x ptr] }
%struct._typeobject = type { %struct.PyVarObject, ptr, i64, i64, ptr, i64, ptr, ptr, ptr, ptr, ptr, ptr, ptr, ptr, ptr, ptr, ptr, ptr, ptr, i64, ptr, ptr, ptr, ptr, i64, ptr, ptr, ptr, ptr, ptr, ptr, ptr, ptr, ptr, i64, ptr, ptr, ptr, ptr, ptr, ptr, ptr, ptr, ptr, ptr, ptr, i32, ptr, ptr, i8, i16 }

; Function Attrs: inlinehint nounwind uwtable
define internal i64 @Py_SIZE(ptr noundef %0) #3 {
  %2 = alloca ptr, align 8
  store ptr %0, ptr %2, align 8, !tbaa !12
  %3 = load ptr, ptr %2, align 8, !tbaa !12
  %4 = getelementptr inbounds nuw %struct.PyVarObject, ptr %3, i32 0, i32 1
  %5 = load i64, ptr %4, align 8, !tbaa !26
  ret i64 %5
}

; Function Attrs: nounwind uwtable
define internal i64 @get_real_size(ptr noundef %0) #0 {
  %2 = alloca ptr, align 8
  %3 = alloca i64, align 8
  store ptr %0, ptr %2, align 8, !tbaa !12
  call void @llvm.lifetime.start.p0(i64 8, ptr %3) #9
  %4 = load ptr, ptr %2, align 8, !tbaa !12
  %5 = call ptr @_Py_TYPE(ptr noundef %4)
  %6 = getelementptr inbounds nuw %struct._typeobject, ptr %5, i32 0, i32 2
  %7 = load i64, ptr %6, align 8, !tbaa !52
  %8 = sub i64 %7, 24
  store i64 %8, ptr %3, align 8, !tbaa !9
  %9 = load ptr, ptr %2, align 8, !tbaa !12
  %10 = call i64 @Py_SIZE(ptr noundef %9)
  %11 = load i64, ptr %3, align 8, !tbaa !9
  %12 = udiv i64 %11, 8
  %13 = add i64 %10, %12
  call void @llvm.lifetime.end.p0(i64 8, ptr %3) #9
  ret i64 %13
}

; Function Attrs: inlinehint nounwind uwtable
define internal ptr @_Py_TYPE(ptr noundef %0) #3 {
  %2 = alloca ptr, align 8
  store ptr %0, ptr %2, align 8, !tbaa !12
  %3 = load ptr, ptr %2, align 8, !tbaa !12
  %4 = getelementptr inbounds nuw %struct._object, ptr %3, i32 0, i32 1
  %5 = load ptr, ptr %4, align 8, !tbaa !36
  ret ptr %5
}

; Function Attrs: nounwind uwtable
define internal i32 @structseq_traverse(ptr noundef %0, ptr noundef %1, ptr noundef %2) #0 {
  %4 = alloca i32, align 4
  %5 = alloca ptr, align 8
  %6 = alloca ptr, align 8
  %7 = alloca ptr, align 8
  %8 = alloca i32, align 4
  %9 = alloca i32, align 4
  %10 = alloca i64, align 8
  %11 = alloca i64, align 8
  %12 = alloca i32, align 4
  store ptr %0, ptr %5, align 8, !tbaa !11
  store ptr %1, ptr %6, align 8, !tbaa !11
  store ptr %2, ptr %7, align 8, !tbaa !11
  %13 = load ptr, ptr %5, align 8, !tbaa !11
  %14 = call ptr @_Py_TYPE(ptr noundef %13)
  %15 = getelementptr inbounds nuw %struct._typeobject, ptr %14, i32 0, i32 19
  %16 = load i64, ptr %15, align 8, !tbaa !32
  %17 = and i64 %16, 512
  %18 = icmp ne i64 %17, 0
  br i1 %18, label %19, label %40

19:                                               ; preds = %3
  br label %20

20:                                               ; preds = %19
  %21 = load ptr, ptr %5, align 8, !tbaa !11
  %22 = call ptr @_Py_TYPE(ptr noundef %21)
  %23 = icmp ne ptr %22, null
  br i1 %23, label %24, label %38

24:                                               ; preds = %20
  call void @llvm.lifetime.start.p0(i64 4, ptr %8) #9
  %25 = load ptr, ptr %6, align 8, !tbaa !11
  %26 = load ptr, ptr %5, align 8, !tbaa !11
  %27 = call ptr @_Py_TYPE(ptr noundef %26)
  %28 = load ptr, ptr %7, align 8, !tbaa !11
  %29 = call i32 %25(ptr noundef %27, ptr noundef %28)
  store i32 %29, ptr %8, align 4, !tbaa !69
  %30 = load i32, ptr %8, align 4, !tbaa !69
  %31 = icmp ne i32 %30, 0
  br i1 %31, label %32, label %34

32:                                               ; preds = %24
  %33 = load i32, ptr %8, align 4, !tbaa !69
  store i32 %33, ptr %4, align 4
  store i32 1, ptr %9, align 4
  br label %35

34:                                               ; preds = %24
  store i32 0, ptr %9, align 4
  br label %35

35:                                               ; preds = %34, %32
  call void @llvm.lifetime.end.p0(i64 4, ptr %8) #9
  %36 = load i32, ptr %9, align 4
  switch i32 %36, label %82 [
    i32 0, label %37
    i32 1, label %80
  ]

37:                                               ; preds = %35
  br label %38

38:                                               ; preds = %37, %20
  br label %39

39:                                               ; preds = %38
  br label %40

40:                                               ; preds = %39, %3
  call void @llvm.lifetime.start.p0(i64 8, ptr %10) #9
  call void @llvm.lifetime.start.p0(i64 8, ptr %11) #9
  %41 = load ptr, ptr %5, align 8, !tbaa !11
  %42 = call i64 @get_real_size(ptr noundef %41)
  store i64 %42, ptr %11, align 8, !tbaa !9
  store i64 0, ptr %10, align 8, !tbaa !9
  br label %43

43:                                               ; preds = %75, %40
  %44 = load i64, ptr %10, align 8, !tbaa !9
  %45 = load i64, ptr %11, align 8, !tbaa !9
  %46 = icmp slt i64 %44, %45
  br i1 %46, label %47, label %78

47:                                               ; preds = %43
  br label %48

48:                                               ; preds = %47
  %49 = load ptr, ptr %5, align 8, !tbaa !11
  %50 = getelementptr inbounds nuw %struct.PyTupleObject, ptr %49, i32 0, i32 1
  %51 = load i64, ptr %10, align 8, !tbaa !9
  %52 = getelementptr [1 x ptr], ptr %50, i64 0, i64 %51
  %53 = load ptr, ptr %52, align 8, !tbaa !12
  %54 = icmp ne ptr %53, null
  br i1 %54, label %55, label %72

55:                                               ; preds = %48
  call void @llvm.lifetime.start.p0(i64 4, ptr %12) #9
  %56 = load ptr, ptr %6, align 8, !tbaa !11
  %57 = load ptr, ptr %5, align 8, !tbaa !11
  %58 = getelementptr inbounds nuw %struct.PyTupleObject, ptr %57, i32 0, i32 1
  %59 = load i64, ptr %10, align 8, !tbaa !9
  %60 = getelementptr [1 x ptr], ptr %58, i64 0, i64 %59
  %61 = load ptr, ptr %60, align 8, !tbaa !12
  %62 = load ptr, ptr %7, align 8, !tbaa !11
  %63 = call i32 %56(ptr noundef %61, ptr noundef %62)
  store i32 %63, ptr %12, align 4, !tbaa !69
  %64 = load i32, ptr %12, align 4, !tbaa !69
  %65 = icmp ne i32 %64, 0
  br i1 %65, label %66, label %68

66:                                               ; preds = %55
  %67 = load i32, ptr %12, align 4, !tbaa !69
  store i32 %67, ptr %4, align 4
  store i32 1, ptr %9, align 4
  br label %69

68:                                               ; preds = %55
  store i32 0, ptr %9, align 4
  br label %69

69:                                               ; preds = %68, %66
  call void @llvm.lifetime.end.p0(i64 4, ptr %12) #9
  %70 = load i32, ptr %9, align 4
  switch i32 %70, label %79 [
    i32 0, label %71
  ]

71:                                               ; preds = %69
  br label %72

72:                                               ; preds = %71, %48
  br label %73

73:                                               ; preds = %72
  br label %74

74:                                               ; preds = %73
  br label %75

75:                                               ; preds = %74
  %76 = load i64, ptr %10, align 8, !tbaa !9
  %77 = add i64 %76, 1
  store i64 %77, ptr %10, align 8, !tbaa !9
  br label %43, !llvm.loop !83

78:                                               ; preds = %43
  store i32 0, ptr %4, align 4
  store i32 1, ptr %9, align 4
  br label %79

79:                                               ; preds = %78, %69
  call void @llvm.lifetime.end.p0(i64 8, ptr %11) #9
  call void @llvm.lifetime.end.p0(i64 8, ptr %10) #9
  br label %80

80:                                               ; preds = %79, %35
  %81 = load i32, ptr %4, align 4
  ret i32 %81

82:                                               ; preds = %35
  unreachable
}