; Function Attrs: nounwind uwtable
define internal i32 @structseq_traverse(ptr noundef readonly captures(none) %0, ptr noundef readonly captures(none) %1, ptr noundef %2) #0 {
  %4 = getelementptr i8, ptr %0, i64 8
  %.val31 = load ptr, ptr %4, align 8, !tbaa !22
  %5 = getelementptr inbounds nuw i8, ptr %.val31, i64 168
  %6 = load i64, ptr %5, align 8, !tbaa !30
  %7 = and i64 %6, 512
  %.not = icmp eq i64 %7, 0
  br i1 %.not, label %10, label %8

8:                                                ; preds = %3
  %9 = tail call i32 %1(ptr noundef nonnull %.val31, ptr noundef %2) #9
  %.not27.not = icmp eq i32 %9, 0
  br i1 %.not27.not, label %._crit_edge, label %.loopexit

._crit_edge:                                      ; preds = %8
  %.val32.pre = load ptr, ptr %4, align 8, !tbaa !22
  br label %10

10:                                               ; preds = %._crit_edge, %3
  %.val32 = phi ptr [ %.val32.pre, %._crit_edge ], [ %.val31, %3 ]
  %11 = getelementptr i8, ptr %0, i64 16
  %.val33 = load i64, ptr %11, align 8, !tbaa !21
  %12 = getelementptr i8, ptr %.val32, i64 32
  %.val32.val = load i64, ptr %12, align 8, !tbaa !41
  %13 = add i64 %.val32.val, -24
  %14 = lshr i64 %13, 3
  %15 = add i64 %14, %.val33
  %16 = icmp sgt i64 %15, 0
  br i1 %16, label %.lr.ph, label %.loopexit

.lr.ph:                                           ; preds = %10
  %17 = getelementptr inbounds nuw i8, ptr %0, i64 24
  br label %18

18:                                               ; preds = %.lr.ph, %23
  %.02334 = phi i64 [ 0, %.lr.ph ], [ %24, %23 ]
  %19 = getelementptr [1 x ptr], ptr %17, i64 0, i64 %.02334
  %20 = load ptr, ptr %19, align 8, !tbaa !4
  %.not28 = icmp eq ptr %20, null
  br i1 %.not28, label %23, label %21

21:                                               ; preds = %18
  %22 = tail call i32 %1(ptr noundef nonnull %20, ptr noundef %2) #9
  %.not29 = icmp eq i32 %22, 0
  br i1 %.not29, label %23, label %.loopexit

23:                                               ; preds = %18, %21
  %24 = add nuw nsw i64 %.02334, 1
  %exitcond.not = icmp eq i64 %24, %15
  br i1 %exitcond.not, label %.loopexit, label %18, !llvm.loop !233

.loopexit:                                        ; preds = %23, %21, %10, %8
  %.2 = phi i32 [ %9, %8 ], [ 0, %10 ], [ 0, %23 ], [ %22, %21 ]
  ret i32 %.2
}